; Function Attrs: mustprogress uwtable
define noundef nonnull align 4 dereferenceable(36) ptr @_ZN32pxrInternal_v0_24__pxrReserved__10GfMatrix3f9SetRotateERKNS_10GfRotationE(ptr noundef nonnull returned writeonly align 4 dereferenceable(36) %0, ptr noundef nonnull align 8 dereferenceable(32) %1) local_unnamed_addr #0 align 2 {
  %3 = alloca %"class.pxrInternal_v0_24__pxrReserved__::GfQuatd", align 8
  call void @llvm.lifetime.start.p0(i64 32, ptr nonnull %3)
  call void @_ZNK32pxrInternal_v0_24__pxrReserved__10GfRotation7GetQuatEv(ptr dead_on_unwind nonnull writable sret(%"class.pxrInternal_v0_24__pxrReserved__::GfQuatd") align 8 %3, ptr noundef nonnull align 8 dereferenceable(32) %1), !noalias !12
  %4 = getelementptr inbounds nuw i8, ptr %3, i64 24
  %5 = load double, ptr %4, align 8, !noalias !12
  %.sroa.2.8.copyload = load double, ptr %3, align 8
  %.sroa.4.8..sroa_idx = getelementptr inbounds i8, ptr %3, i64 8
  %.sroa.4.8.copyload = load double, ptr %.sroa.4.8..sroa_idx, align 8
  %.sroa.5.8..sroa_idx = getelementptr inbounds i8, ptr %3, i64 16
  %.sroa.5.8.copyload = load double, ptr %.sroa.5.8..sroa_idx, align 8
  call void @llvm.lifetime.end.p0(i64 32, ptr nonnull %3)
  %6 = fptrunc double %5 to float
  %7 = fptrunc double %.sroa.2.8.copyload to float
  %8 = fptrunc double %.sroa.4.8.copyload to float
  %9 = fptrunc double %.sroa.5.8.copyload to float
  %10 = fmul float %9, %9
  %11 = call float @llvm.fmuladd.f32(float %8, float %8, float %10)
  %12 = fpext float %11 to double
  %13 = call double @llvm.fmuladd.f64(double %12, double -2.000000e+00, double 1.000000e+00)
  %14 = fptrunc double %13 to float
  store float %14, ptr %0, align 4
  %15 = fmul float %6, %9
  %16 = call float @llvm.fmuladd.f32(float %7, float %8, float %15)
  %17 = fmul float %16, 2.000000e+00
  %18 = getelementptr inbounds i8, ptr %0, i64 4
  store float %17, ptr %18, align 4
  %19 = fneg float %6
  %20 = fmul float %19, %8
  %21 = call float @llvm.fmuladd.f32(float %9, float %7, float %20)
  %22 = fmul float %21, 2.000000e+00
  %23 = getelementptr inbounds i8, ptr %0, i64 8
  store float %22, ptr %23, align 4
  %24 = fmul float %19, %9
  %25 = call float @llvm.fmuladd.f32(float %7, float %8, float %24)
  %26 = fmul float %25, 2.000000e+00
  %27 = getelementptr inbounds i8, ptr %0, i64 12
  store float %26, ptr %27, align 4
  %28 = fmul float %7, %7
  %29 = call float @llvm.fmuladd.f32(float %9, float %9, float %28)
  %30 = fpext float %29 to double
  %31 = call double @llvm.fmuladd.f64(double %30, double -2.000000e+00, double 1.000000e+00)
  %32 = fptrunc double %31 to float
  %33 = getelementptr inbounds i8, ptr %0, i64 16
  store float %32, ptr %33, align 4
  %34 = fmul float %6, %7
  %35 = call float @llvm.fmuladd.f32(float %8, float %9, float %34)
  %36 = fmul float %35, 2.000000e+00
  %37 = getelementptr inbounds i8, ptr %0, i64 20
  store float %36, ptr %37, align 4
  %38 = fmul float %6, %8
  %39 = call float @llvm.fmuladd.f32(float %9, float %7, float %38)
  %40 = fmul float %39, 2.000000e+00
  %41 = getelementptr inbounds i8, ptr %0, i64 24
  store float %40, ptr %41, align 4
  %42 = fmul float %19, %7
  %43 = call float @llvm.fmuladd.f32(float %8, float %9, float %42)
  %44 = fmul float %43, 2.000000e+00
  %45 = getelementptr inbounds i8, ptr %0, i64 28
  store float %44, ptr %45, align 4
  %46 = call float @llvm.fmuladd.f32(float %8, float %8, float %28)
  %47 = fpext float %46 to double
  %48 = call double @llvm.fmuladd.f64(double %47, double -2.000000e+00, double 1.000000e+00)
  %49 = fptrunc double %48 to float
  %50 = getelementptr inbounds i8, ptr %0, i64 32
  store float %49, ptr %50, align 4
  ret ptr %0
}